; Function Attrs: mustprogress uwtable
define void @_ZN8facebook5velox4exec7EvalCtx8setErrorEiRKNSt15__exception_ptr13exception_ptrE(ptr nocapture noundef nonnull align 8 dereferenceable(104) %this, i32 noundef %index, ptr noundef nonnull align 8 dereferenceable(8) %exceptionPtr) local_unnamed_addr #0 align 2 personality ptr @__gxx_personality_v0 {
entry:
  %agg.tmp.i = alloca %"class.std::__exception_ptr::exception_ptr", align 8
  %ref.tmp = alloca %"class.std::__exception_ptr::exception_ptr", align 8
  %throwOnError_ = getelementptr inbounds i8, ptr %this, i64 73
  %0 = load i8, ptr %throwOnError_, align 1
  %1 = and i8 %0, 1
  %tobool.not = icmp eq i8 %1, 0
  br i1 %tobool.not, label %if.end, label %if.then

if.then:                                          ; preds = %entry
  call void @llvm.lifetime.start.p0(i64 8, ptr nonnull %agg.tmp.i)
  call void @_ZN8facebook5velox16toVeloxExceptionERKNSt15__exception_ptr13exception_ptrE(ptr nonnull sret(%"class.std::__exception_ptr::exception_ptr") align 8 %agg.tmp.i, ptr noundef nonnull align 8 dereferenceable(8) %exceptionPtr)
  invoke void @_ZSt17rethrow_exceptionNSt15__exception_ptr13exception_ptrE(ptr noundef nonnull %agg.tmp.i) #32
          to label %invoke.cont.i unwind label %lpad.i

invoke.cont.i:                                    ; preds = %if.then
  unreachable

lpad.i:                                           ; preds = %if.then
  %2 = landingpad { ptr, i32 }
          cleanup
  %3 = load ptr, ptr %agg.tmp.i, align 8
  %tobool.not.i.i = icmp eq ptr %3, null
  br i1 %tobool.not.i.i, label %common.resume, label %common.resume.sink.split

common.resume.sink.split:                         ; preds = %lpad.i, %lpad
  %ref.tmp.sink = phi ptr [ %ref.tmp, %lpad ], [ %agg.tmp.i, %lpad.i ]
  %common.resume.op.ph = phi { ptr, i32 } [ %5, %lpad ], [ %2, %lpad.i ]
  call void @_ZNSt15__exception_ptr13exception_ptr10_M_releaseEv(ptr noundef nonnull align 8 dereferenceable(8) %ref.tmp.sink) #28
  br label %common.resume

common.resume:                                    ; preds = %common.resume.sink.split, %lpad, %lpad.i
  %common.resume.op = phi { ptr, i32 } [ %2, %lpad.i ], [ %5, %lpad ], [ %common.resume.op.ph, %common.resume.sink.split ]
  resume { ptr, i32 } %common.resume.op

if.end:                                           ; preds = %entry
  call void @_ZN8facebook5velox16toVeloxExceptionERKNSt15__exception_ptr13exception_ptrE(ptr nonnull sret(%"class.std::__exception_ptr::exception_ptr") align 8 %ref.tmp, ptr noundef nonnull align 8 dereferenceable(8) %exceptionPtr)
  %errors_ = getelementptr inbounds i8, ptr %this, i64 88
  invoke void @_ZNK8facebook5velox4exec7EvalCtx8addErrorEiRKNSt15__exception_ptr13exception_ptrERSt10shared_ptrINS0_10FlatVectorIS7_IvEEEE(ptr noundef nonnull align 8 dereferenceable(104) %this, i32 noundef %index, ptr noundef nonnull align 8 dereferenceable(8) %ref.tmp, ptr noundef nonnull align 8 dereferenceable(16) %errors_)
          to label %invoke.cont unwind label %lpad

invoke.cont:                                      ; preds = %if.end
  %4 = load ptr, ptr %ref.tmp, align 8
  %tobool.not.i = icmp eq ptr %4, null
  br i1 %tobool.not.i, label %_ZNSt15__exception_ptr13exception_ptrD2Ev.exit, label %if.then.i

if.then.i:                                        ; preds = %invoke.cont
  call void @_ZNSt15__exception_ptr13exception_ptr10_M_releaseEv(ptr noundef nonnull align 8 dereferenceable(8) %ref.tmp) #28
  br label %_ZNSt15__exception_ptr13exception_ptrD2Ev.exit

_ZNSt15__exception_ptr13exception_ptrD2Ev.exit:   ; preds = %invoke.cont, %if.then.i
  ret void

lpad:                                             ; preds = %if.end
  %5 = landingpad { ptr, i32 }
          cleanup
  %6 = load ptr, ptr %ref.tmp, align 8
  %tobool.not.i2 = icmp eq ptr %6, null
  br i1 %tobool.not.i2, label %common.resume, label %common.resume.sink.split
}